ARM GAS  /tmp/cch37VC5.s 			page 1


   1              		.cpu cortex-m4
   2              		.eabi_attribute 27, 1
   3              		.eabi_attribute 28, 1
   4              		.eabi_attribute 20, 1
   5              		.eabi_attribute 21, 1
   6              		.eabi_attribute 23, 3
   7              		.eabi_attribute 24, 1
   8              		.eabi_attribute 25, 1
   9              		.eabi_attribute 26, 1
  10              		.eabi_attribute 30, 1
  11              		.eabi_attribute 34, 1
  12              		.eabi_attribute 18, 4
  13              		.file	"app_x-cube-ai.c"
  14              		.text
  15              	.Ltext0:
  16              		.cfi_sections	.debug_frame
  17              		.section	.text.ai_log_err,"ax",%progbits
  18              		.align	1
  19              		.syntax unified
  20              		.thumb
  21              		.thumb_func
  22              		.fpu fpv4-sp-d16
  24              	ai_log_err:
  25              	.LFB133:
  26              		.file 1 "X-CUBE-AI/App/app_x-cube-ai.c"
   1:X-CUBE-AI/App/app_x-cube-ai.c **** 
   2:X-CUBE-AI/App/app_x-cube-ai.c **** #ifdef __cplusplus
   3:X-CUBE-AI/App/app_x-cube-ai.c ****  extern "C" {
   4:X-CUBE-AI/App/app_x-cube-ai.c **** #endif
   5:X-CUBE-AI/App/app_x-cube-ai.c **** /**
   6:X-CUBE-AI/App/app_x-cube-ai.c ****   ******************************************************************************
   7:X-CUBE-AI/App/app_x-cube-ai.c ****   * @file           : app_x-cube-ai.c
   8:X-CUBE-AI/App/app_x-cube-ai.c ****   * @brief          : AI program body
   9:X-CUBE-AI/App/app_x-cube-ai.c ****   ******************************************************************************
  10:X-CUBE-AI/App/app_x-cube-ai.c ****   * This notice applies to any and all portions of this file
  11:X-CUBE-AI/App/app_x-cube-ai.c ****   * that are not between comment pairs USER CODE BEGIN and
  12:X-CUBE-AI/App/app_x-cube-ai.c ****   * USER CODE END. Other portions of this file, whether
  13:X-CUBE-AI/App/app_x-cube-ai.c ****   * inserted by the user or by software development tools
  14:X-CUBE-AI/App/app_x-cube-ai.c ****   * are owned by their respective copyright owners.
  15:X-CUBE-AI/App/app_x-cube-ai.c ****   *
  16:X-CUBE-AI/App/app_x-cube-ai.c ****   * Copyright (c) 2018 STMicroelectronics International N.V.
  17:X-CUBE-AI/App/app_x-cube-ai.c ****   * All rights reserved.
  18:X-CUBE-AI/App/app_x-cube-ai.c ****   *
  19:X-CUBE-AI/App/app_x-cube-ai.c ****   * Redistribution and use in source and binary forms, with or without
  20:X-CUBE-AI/App/app_x-cube-ai.c ****   * modification, are permitted, provided that the following conditions are met:
  21:X-CUBE-AI/App/app_x-cube-ai.c ****   *
  22:X-CUBE-AI/App/app_x-cube-ai.c ****   * 1. Redistribution of source code must retain the above copyright notice,
  23:X-CUBE-AI/App/app_x-cube-ai.c ****   *    this list of conditions and the following disclaimer.
  24:X-CUBE-AI/App/app_x-cube-ai.c ****   * 2. Redistributions in binary form must reproduce the above copyright notice,
  25:X-CUBE-AI/App/app_x-cube-ai.c ****   *    this list of conditions and the following disclaimer in the documentation
  26:X-CUBE-AI/App/app_x-cube-ai.c ****   *    and/or other materials provided with the distribution.
  27:X-CUBE-AI/App/app_x-cube-ai.c ****   * 3. Neither the name of STMicroelectronics nor the names of other
  28:X-CUBE-AI/App/app_x-cube-ai.c ****   *    contributors to this software may be used to endorse or promote products
  29:X-CUBE-AI/App/app_x-cube-ai.c ****   *    derived from this software without specific written permission.
  30:X-CUBE-AI/App/app_x-cube-ai.c ****   * 4. This software, including modifications and/or derivative works of this
  31:X-CUBE-AI/App/app_x-cube-ai.c ****   *    software, must execute solely and exclusively on microcontroller or
  32:X-CUBE-AI/App/app_x-cube-ai.c ****   *    microprocessor devices manufactured by or for STMicroelectronics.
ARM GAS  /tmp/cch37VC5.s 			page 2


  33:X-CUBE-AI/App/app_x-cube-ai.c ****   * 5. Redistribution and use of this software other than as permitted under
  34:X-CUBE-AI/App/app_x-cube-ai.c ****   *    this license is void and will automatically terminate your rights under
  35:X-CUBE-AI/App/app_x-cube-ai.c ****   *    this license.
  36:X-CUBE-AI/App/app_x-cube-ai.c ****   *
  37:X-CUBE-AI/App/app_x-cube-ai.c ****   * THIS SOFTWARE IS PROVIDED BY STMICROELECTRONICS AND CONTRIBUTORS "AS IS"
  38:X-CUBE-AI/App/app_x-cube-ai.c ****   * AND ANY EXPRESS, IMPLIED OR STATUTORY WARRANTIES, INCLUDING, BUT NOT
  39:X-CUBE-AI/App/app_x-cube-ai.c ****   * LIMITED TO, THE IMPLIED WARRANTIES OF MERCHANTABILITY, FITNESS FOR A
  40:X-CUBE-AI/App/app_x-cube-ai.c ****   * PARTICULAR PURPOSE AND NON-INFRINGEMENT OF THIRD PARTY INTELLECTUAL PROPERTY
  41:X-CUBE-AI/App/app_x-cube-ai.c ****   * RIGHTS ARE DISCLAIMED TO THE FULLEST EXTENT PERMITTED BY LAW. IN NO EVENT
  42:X-CUBE-AI/App/app_x-cube-ai.c ****   * SHALL STMICROELECTRONICS OR CONTRIBUTORS BE LIABLE FOR ANY DIRECT, INDIRECT,
  43:X-CUBE-AI/App/app_x-cube-ai.c ****   * INCIDENTAL, SPECIAL, EXEMPLARY, OR CONSEQUENTIAL DAMAGES (INCLUDING, BUT NOT
  44:X-CUBE-AI/App/app_x-cube-ai.c ****   * LIMITED TO, PROCUREMENT OF SUBSTITUTE GOODS OR SERVICES; LOSS OF USE, DATA,
  45:X-CUBE-AI/App/app_x-cube-ai.c ****   * OR PROFITS; OR BUSINESS INTERRUPTION) HOWEVER CAUSED AND ON ANY THEORY OF
  46:X-CUBE-AI/App/app_x-cube-ai.c ****   * LIABILITY, WHETHER IN CONTRACT, STRICT LIABILITY, OR TORT (INCLUDING
  47:X-CUBE-AI/App/app_x-cube-ai.c ****   * NEGLIGENCE OR OTHERWISE) ARISING IN ANY WAY OUT OF THE USE OF THIS SOFTWARE,
  48:X-CUBE-AI/App/app_x-cube-ai.c ****   * EVEN IF ADVISED OF THE POSSIBILITY OF SUCH DAMAGE.
  49:X-CUBE-AI/App/app_x-cube-ai.c ****   *
  50:X-CUBE-AI/App/app_x-cube-ai.c ****   ******************************************************************************
  51:X-CUBE-AI/App/app_x-cube-ai.c ****   */
  52:X-CUBE-AI/App/app_x-cube-ai.c ****  /*
  53:X-CUBE-AI/App/app_x-cube-ai.c ****   * Description
  54:X-CUBE-AI/App/app_x-cube-ai.c ****   *   v1.0 - Minimum template to show how to use the Embedded Client API
  55:X-CUBE-AI/App/app_x-cube-ai.c ****   *          model. Only one input and one output is supported. All
  56:X-CUBE-AI/App/app_x-cube-ai.c ****   *          memory resources are allocated statically (AI_NETWORK_XX, defines
  57:X-CUBE-AI/App/app_x-cube-ai.c ****   *          are used).
  58:X-CUBE-AI/App/app_x-cube-ai.c ****   *          Re-target of the printf function is out-of-scope.
  59:X-CUBE-AI/App/app_x-cube-ai.c ****   *
  60:X-CUBE-AI/App/app_x-cube-ai.c ****   *   For more information, see the embeded documentation:
  61:X-CUBE-AI/App/app_x-cube-ai.c ****   *
  62:X-CUBE-AI/App/app_x-cube-ai.c ****   *       [1] %X_CUBE_AI_DIR%/Documentation/index.html
  63:X-CUBE-AI/App/app_x-cube-ai.c ****   *
  64:X-CUBE-AI/App/app_x-cube-ai.c ****   *   X_CUBE_AI_DIR indicates the location where the X-CUBE-AI pack is installed
  65:X-CUBE-AI/App/app_x-cube-ai.c ****   *   typical : C:\Users\<user_name>\STM32Cube\Repository\STMicroelectronics\X-CUBE-AI\6.0.0
  66:X-CUBE-AI/App/app_x-cube-ai.c ****   */
  67:X-CUBE-AI/App/app_x-cube-ai.c **** /* Includes ------------------------------------------------------------------*/
  68:X-CUBE-AI/App/app_x-cube-ai.c **** /* System headers */
  69:X-CUBE-AI/App/app_x-cube-ai.c **** #include <stdint.h>
  70:X-CUBE-AI/App/app_x-cube-ai.c **** #include <stdlib.h>
  71:X-CUBE-AI/App/app_x-cube-ai.c **** #include <stdio.h>
  72:X-CUBE-AI/App/app_x-cube-ai.c **** #include <inttypes.h>
  73:X-CUBE-AI/App/app_x-cube-ai.c **** #include <string.h>
  74:X-CUBE-AI/App/app_x-cube-ai.c **** 
  75:X-CUBE-AI/App/app_x-cube-ai.c **** #include "app_x-cube-ai.h"
  76:X-CUBE-AI/App/app_x-cube-ai.c **** #include "main.h"
  77:X-CUBE-AI/App/app_x-cube-ai.c **** #include "testInput.h"
  78:X-CUBE-AI/App/app_x-cube-ai.c **** #include "ai_datatypes_defines.h"
  79:X-CUBE-AI/App/app_x-cube-ai.c **** 
  80:X-CUBE-AI/App/app_x-cube-ai.c **** /* USER CODE BEGIN includes */
  81:X-CUBE-AI/App/app_x-cube-ai.c **** /* USER CODE END includes */
  82:X-CUBE-AI/App/app_x-cube-ai.c **** /* Global AI objects */
  83:X-CUBE-AI/App/app_x-cube-ai.c **** static ai_handle network = AI_HANDLE_NULL;
  84:X-CUBE-AI/App/app_x-cube-ai.c **** static ai_network_report network_info;
  85:X-CUBE-AI/App/app_x-cube-ai.c **** 
  86:X-CUBE-AI/App/app_x-cube-ai.c **** /* Global c-array to handle the activations buffer */
  87:X-CUBE-AI/App/app_x-cube-ai.c **** AI_ALIGNED(4)
  88:X-CUBE-AI/App/app_x-cube-ai.c **** static ai_u8 activations[AI_NETWORK_DATA_ACTIVATIONS_SIZE];
  89:X-CUBE-AI/App/app_x-cube-ai.c **** 
ARM GAS  /tmp/cch37VC5.s 			page 3


  90:X-CUBE-AI/App/app_x-cube-ai.c **** /*  In the case where "--allocate-inputs" option is used, memory buffer can be
  91:X-CUBE-AI/App/app_x-cube-ai.c ****  *  used from the activations buffer. This is not mandatory.
  92:X-CUBE-AI/App/app_x-cube-ai.c ****  */
  93:X-CUBE-AI/App/app_x-cube-ai.c **** #if !defined(AI_NETWORK_INPUTS_IN_ACTIVATIONS)
  94:X-CUBE-AI/App/app_x-cube-ai.c **** /* Allocate data payload for input tensor */
  95:X-CUBE-AI/App/app_x-cube-ai.c **** AI_ALIGNED(4)
  96:X-CUBE-AI/App/app_x-cube-ai.c **** static ai_float in_data_s[AI_NETWORK_IN_1_SIZE_BYTES];
  97:X-CUBE-AI/App/app_x-cube-ai.c **** #endif
  98:X-CUBE-AI/App/app_x-cube-ai.c **** 
  99:X-CUBE-AI/App/app_x-cube-ai.c **** /*  In the case where "--allocate-outputs" option is used, memory buffer can be
 100:X-CUBE-AI/App/app_x-cube-ai.c ****  *  used from the activations buffer. This is no mandatory.
 101:X-CUBE-AI/App/app_x-cube-ai.c ****  */
 102:X-CUBE-AI/App/app_x-cube-ai.c **** #if !defined(AI_NETWORK_OUTPUTS_IN_ACTIVATIONS)
 103:X-CUBE-AI/App/app_x-cube-ai.c **** /* Allocate data payload for the output tensor */
 104:X-CUBE-AI/App/app_x-cube-ai.c **** AI_ALIGNED(4)
 105:X-CUBE-AI/App/app_x-cube-ai.c **** static ai_float out_data_s[AI_NETWORK_OUT_1_SIZE_BYTES];
 106:X-CUBE-AI/App/app_x-cube-ai.c **** #endif
 107:X-CUBE-AI/App/app_x-cube-ai.c **** 
 108:X-CUBE-AI/App/app_x-cube-ai.c **** static void ai_log_err(const ai_error err, const char *fct)
 109:X-CUBE-AI/App/app_x-cube-ai.c **** {
  27              		.loc 1 109 0
  28              		.cfi_startproc
  29              		@ Volatile: function does not return.
  30              		@ args = 0, pretend = 0, frame = 0
  31              		@ frame_needed = 0, uses_anonymous_args = 0
  32              	.LVL0:
  33 0000 08B5     		push	{r3, lr}
  34              	.LCFI0:
  35              		.cfi_def_cfa_offset 8
  36              		.cfi_offset 3, -8
  37              		.cfi_offset 14, -4
 110:X-CUBE-AI/App/app_x-cube-ai.c ****   /* USER CODE BEGIN log */
 111:X-CUBE-AI/App/app_x-cube-ai.c ****   if (fct)
  38              		.loc 1 111 0
  39 0002 29B1     		cbz	r1, .L2
 112:X-CUBE-AI/App/app_x-cube-ai.c ****     printf("TEMPLATE - Error (%s) - type=0x%02x code=0x%02x\r\n", fct,
  40              		.loc 1 112 0
  41 0004 030A     		lsrs	r3, r0, #8
  42 0006 C2B2     		uxtb	r2, r0
  43 0008 0448     		ldr	r0, .L5
  44              	.LVL1:
  45 000a FFF7FEFF 		bl	printf
  46              	.LVL2:
  47              	.L3:
  48 000e FEE7     		b	.L3
  49              	.LVL3:
  50              	.L2:
 113:X-CUBE-AI/App/app_x-cube-ai.c ****         err.type, err.code);
 114:X-CUBE-AI/App/app_x-cube-ai.c ****   else
 115:X-CUBE-AI/App/app_x-cube-ai.c ****     printf("TEMPLATE - Error - type=0x%02x code=0x%02x\r\n", err.type, err.code);
  51              		.loc 1 115 0
  52 0010 020A     		lsrs	r2, r0, #8
  53 0012 C1B2     		uxtb	r1, r0
  54              	.LVL4:
  55 0014 0248     		ldr	r0, .L5+4
  56              	.LVL5:
  57 0016 FFF7FEFF 		bl	printf
ARM GAS  /tmp/cch37VC5.s 			page 4


  58              	.LVL6:
  59 001a F8E7     		b	.L3
  60              	.L6:
  61              		.align	2
  62              	.L5:
  63 001c 00000000 		.word	.LC0
  64 0020 34000000 		.word	.LC1
  65              		.cfi_endproc
  66              	.LFE133:
  68              		.section	.text.ai_boostrap,"ax",%progbits
  69              		.align	1
  70              		.syntax unified
  71              		.thumb
  72              		.thumb_func
  73              		.fpu fpv4-sp-d16
  75              	ai_boostrap:
  76              	.LFB134:
 116:X-CUBE-AI/App/app_x-cube-ai.c **** 
 117:X-CUBE-AI/App/app_x-cube-ai.c ****   do {} while (1);
 118:X-CUBE-AI/App/app_x-cube-ai.c ****   /* USER CODE END log */
 119:X-CUBE-AI/App/app_x-cube-ai.c **** }
 120:X-CUBE-AI/App/app_x-cube-ai.c **** 
 121:X-CUBE-AI/App/app_x-cube-ai.c **** static int ai_boostrap(ai_handle w_addr, ai_handle act_addr)
 122:X-CUBE-AI/App/app_x-cube-ai.c **** {
  77              		.loc 1 122 0
  78              		.cfi_startproc
  79              		@ args = 0, pretend = 0, frame = 48
  80              		@ frame_needed = 0, uses_anonymous_args = 0
  81              	.LVL7:
  82 0000 30B5     		push	{r4, r5, lr}
  83              	.LCFI1:
  84              		.cfi_def_cfa_offset 12
  85              		.cfi_offset 4, -12
  86              		.cfi_offset 5, -8
  87              		.cfi_offset 14, -4
  88 0002 8DB0     		sub	sp, sp, #52
  89              	.LCFI2:
  90              		.cfi_def_cfa_offset 64
  91 0004 0546     		mov	r5, r0
  92 0006 0C46     		mov	r4, r1
 123:X-CUBE-AI/App/app_x-cube-ai.c ****   ai_error err;
 124:X-CUBE-AI/App/app_x-cube-ai.c **** 
 125:X-CUBE-AI/App/app_x-cube-ai.c ****   /* 1 - Create an instance of the model */
 126:X-CUBE-AI/App/app_x-cube-ai.c ****   err = ai_network_create(&network, AI_NETWORK_DATA_CONFIG);
  93              		.loc 1 126 0
  94 0008 0021     		movs	r1, #0
  95              	.LVL8:
  96 000a 2048     		ldr	r0, .L15
  97              	.LVL9:
  98 000c FFF7FEFF 		bl	ai_network_create
  99              	.LVL10:
 127:X-CUBE-AI/App/app_x-cube-ai.c ****   if (err.type != AI_ERROR_NONE) {
 100              		.loc 1 127 0
 101 0010 10F0FF0F 		tst	r0, #255
 102 0014 29D1     		bne	.L12
 128:X-CUBE-AI/App/app_x-cube-ai.c ****     ai_log_err(err, "ai_network_create");
 129:X-CUBE-AI/App/app_x-cube-ai.c ****     return -1;
ARM GAS  /tmp/cch37VC5.s 			page 5


 130:X-CUBE-AI/App/app_x-cube-ai.c ****   }
 131:X-CUBE-AI/App/app_x-cube-ai.c **** 
 132:X-CUBE-AI/App/app_x-cube-ai.c ****   /* 2 - Initialize the instance */
 133:X-CUBE-AI/App/app_x-cube-ai.c ****   const ai_network_params params = AI_NETWORK_PARAMS_INIT(
 103              		.loc 1 133 0
 104 0016 1E4B     		ldr	r3, .L15+4
 105 0018 0093     		str	r3, [sp]
 106 001a 0123     		movs	r3, #1
 107 001c ADF80430 		strh	r3, [sp, #4]	@ movhi
 108 0020 ADF80630 		strh	r3, [sp, #6]	@ movhi
 109 0024 ADF80830 		strh	r3, [sp, #8]	@ movhi
 110 0028 1A4A     		ldr	r2, .L15+8
 111 002a 0392     		str	r2, [sp, #12]
 112 002c 0495     		str	r5, [sp, #16]
 113 002e 0022     		movs	r2, #0
 114 0030 0592     		str	r2, [sp, #20]
 115 0032 1949     		ldr	r1, .L15+12
 116 0034 0691     		str	r1, [sp, #24]
 117 0036 ADF81C30 		strh	r3, [sp, #28]	@ movhi
 118 003a ADF81E30 		strh	r3, [sp, #30]	@ movhi
 119 003e ADF82030 		strh	r3, [sp, #32]	@ movhi
 120 0042 4FF4E943 		mov	r3, #29824
 121 0046 0993     		str	r3, [sp, #36]
 122 0048 0A94     		str	r4, [sp, #40]
 123 004a 0B92     		str	r2, [sp, #44]
 134:X-CUBE-AI/App/app_x-cube-ai.c ****       AI_NETWORK_DATA_WEIGHTS(w_addr),
 135:X-CUBE-AI/App/app_x-cube-ai.c ****       AI_NETWORK_DATA_ACTIVATIONS(act_addr) );
 136:X-CUBE-AI/App/app_x-cube-ai.c **** 
 137:X-CUBE-AI/App/app_x-cube-ai.c ****   if (!ai_network_init(network, &params)) {
 124              		.loc 1 137 0
 125 004c 6946     		mov	r1, sp
 126 004e 0F4B     		ldr	r3, .L15
 127 0050 1868     		ldr	r0, [r3]
 128              	.LVL11:
 129 0052 FFF7FEFF 		bl	ai_network_init
 130              	.LVL12:
 131 0056 58B1     		cbz	r0, .L13
 138:X-CUBE-AI/App/app_x-cube-ai.c ****       err = ai_network_get_error(network);
 139:X-CUBE-AI/App/app_x-cube-ai.c ****       ai_log_err(err, "ai_network_init");
 140:X-CUBE-AI/App/app_x-cube-ai.c ****       return -1;
 141:X-CUBE-AI/App/app_x-cube-ai.c ****     }
 142:X-CUBE-AI/App/app_x-cube-ai.c **** 
 143:X-CUBE-AI/App/app_x-cube-ai.c ****   /* 3 - Retrieve the network info of the created instance */
 144:X-CUBE-AI/App/app_x-cube-ai.c ****   if (!ai_network_get_info(network, &network_info)) {
 132              		.loc 1 144 0
 133 0058 1049     		ldr	r1, .L15+16
 134 005a 0C4B     		ldr	r3, .L15
 135 005c 1868     		ldr	r0, [r3]
 136 005e FFF7FEFF 		bl	ai_network_get_info
 137              	.LVL13:
 138 0062 60B1     		cbz	r0, .L14
 145:X-CUBE-AI/App/app_x-cube-ai.c ****     err = ai_network_get_error(network);
 146:X-CUBE-AI/App/app_x-cube-ai.c ****     ai_log_err(err, "ai_network_get_error");
 147:X-CUBE-AI/App/app_x-cube-ai.c ****     ai_network_destroy(network);
 148:X-CUBE-AI/App/app_x-cube-ai.c ****     network = AI_HANDLE_NULL;
 149:X-CUBE-AI/App/app_x-cube-ai.c ****     return -3;
 150:X-CUBE-AI/App/app_x-cube-ai.c ****   }
ARM GAS  /tmp/cch37VC5.s 			page 6


 151:X-CUBE-AI/App/app_x-cube-ai.c **** 
 152:X-CUBE-AI/App/app_x-cube-ai.c ****   return 0;
 153:X-CUBE-AI/App/app_x-cube-ai.c **** }
 139              		.loc 1 153 0
 140 0064 0020     		movs	r0, #0
 141 0066 0DB0     		add	sp, sp, #52
 142              	.LCFI3:
 143              		.cfi_remember_state
 144              		.cfi_def_cfa_offset 12
 145              		@ sp needed
 146 0068 30BD     		pop	{r4, r5, pc}
 147              	.LVL14:
 148              	.L12:
 149              	.LCFI4:
 150              		.cfi_restore_state
 128:X-CUBE-AI/App/app_x-cube-ai.c ****     return -1;
 151              		.loc 1 128 0
 152 006a 0D49     		ldr	r1, .L15+20
 153 006c FFF7FEFF 		bl	ai_log_err
 154              	.LVL15:
 155              	.L13:
 138:X-CUBE-AI/App/app_x-cube-ai.c ****       err = ai_network_get_error(network);
 156              		.loc 1 138 0
 157 0070 064B     		ldr	r3, .L15
 158 0072 1868     		ldr	r0, [r3]
 159 0074 FFF7FEFF 		bl	ai_network_get_error
 160              	.LVL16:
 139:X-CUBE-AI/App/app_x-cube-ai.c ****       return -1;
 161              		.loc 1 139 0
 162 0078 0A49     		ldr	r1, .L15+24
 163 007a FFF7FEFF 		bl	ai_log_err
 164              	.LVL17:
 165              	.L14:
 145:X-CUBE-AI/App/app_x-cube-ai.c ****     err = ai_network_get_error(network);
 166              		.loc 1 145 0
 167 007e 034B     		ldr	r3, .L15
 168 0080 1868     		ldr	r0, [r3]
 169 0082 FFF7FEFF 		bl	ai_network_get_error
 170              	.LVL18:
 146:X-CUBE-AI/App/app_x-cube-ai.c ****     ai_network_destroy(network);
 171              		.loc 1 146 0
 172 0086 0849     		ldr	r1, .L15+28
 173 0088 FFF7FEFF 		bl	ai_log_err
 174              	.LVL19:
 175              	.L16:
 176              		.align	2
 177              	.L15:
 178 008c 00000000 		.word	.LANCHOR0
 179 0090 40040440 		.word	1074005056
 180 0094 68CC0200 		.word	183400
 181 0098 40040400 		.word	263232
 182 009c 00000000 		.word	.LANCHOR1
 183 00a0 00000000 		.word	.LC2
 184 00a4 14000000 		.word	.LC3
 185 00a8 24000000 		.word	.LC4
 186              		.cfi_endproc
 187              	.LFE134:
ARM GAS  /tmp/cch37VC5.s 			page 7


 189              		.section	.text.ai_run,"ax",%progbits
 190              		.align	1
 191              		.syntax unified
 192              		.thumb
 193              		.thumb_func
 194              		.fpu fpv4-sp-d16
 196              	ai_run:
 197              	.LFB135:
 154:X-CUBE-AI/App/app_x-cube-ai.c **** 
 155:X-CUBE-AI/App/app_x-cube-ai.c **** static int ai_run(void *data_in, void *data_out)
 156:X-CUBE-AI/App/app_x-cube-ai.c **** {
 198              		.loc 1 156 0
 199              		.cfi_startproc
 200              		@ args = 0, pretend = 0, frame = 0
 201              		@ frame_needed = 0, uses_anonymous_args = 0
 202              	.LVL20:
 203 0000 08B5     		push	{r3, lr}
 204              	.LCFI5:
 205              		.cfi_def_cfa_offset 8
 206              		.cfi_offset 3, -8
 207              		.cfi_offset 14, -4
 157:X-CUBE-AI/App/app_x-cube-ai.c ****   ai_i32 batch;
 158:X-CUBE-AI/App/app_x-cube-ai.c **** 
 159:X-CUBE-AI/App/app_x-cube-ai.c ****   ai_buffer *ai_input = network_info.inputs;
 208              		.loc 1 159 0
 209 0002 0A4A     		ldr	r2, .L21
 210 0004 536B     		ldr	r3, [r2, #52]
 211              	.LVL21:
 160:X-CUBE-AI/App/app_x-cube-ai.c ****   ai_buffer *ai_output = network_info.outputs;
 212              		.loc 1 160 0
 213 0006 926B     		ldr	r2, [r2, #56]
 214              	.LVL22:
 161:X-CUBE-AI/App/app_x-cube-ai.c **** 
 162:X-CUBE-AI/App/app_x-cube-ai.c ****   ai_input[0].data = AI_HANDLE_PTR(data_in);
 215              		.loc 1 162 0
 216 0008 1861     		str	r0, [r3, #16]
 163:X-CUBE-AI/App/app_x-cube-ai.c ****   ai_output[0].data = AI_HANDLE_PTR(data_out);
 217              		.loc 1 163 0
 218 000a 1161     		str	r1, [r2, #16]
 164:X-CUBE-AI/App/app_x-cube-ai.c **** 
 165:X-CUBE-AI/App/app_x-cube-ai.c ****   batch = ai_network_run(network, ai_input, ai_output);
 219              		.loc 1 165 0
 220 000c 1946     		mov	r1, r3
 221              	.LVL23:
 222 000e 084B     		ldr	r3, .L21+4
 223              	.LVL24:
 224 0010 1868     		ldr	r0, [r3]
 225              	.LVL25:
 226 0012 FFF7FEFF 		bl	ai_network_run
 227              	.LVL26:
 166:X-CUBE-AI/App/app_x-cube-ai.c ****   if (batch != 1) {
 228              		.loc 1 166 0
 229 0016 0128     		cmp	r0, #1
 230 0018 01D1     		bne	.L20
 167:X-CUBE-AI/App/app_x-cube-ai.c ****     ai_log_err(ai_network_get_error(network),
 168:X-CUBE-AI/App/app_x-cube-ai.c ****         "ai_network_run");
 169:X-CUBE-AI/App/app_x-cube-ai.c ****     return -1;
ARM GAS  /tmp/cch37VC5.s 			page 8


 170:X-CUBE-AI/App/app_x-cube-ai.c ****   }
 171:X-CUBE-AI/App/app_x-cube-ai.c **** 
 172:X-CUBE-AI/App/app_x-cube-ai.c ****   return 0;
 173:X-CUBE-AI/App/app_x-cube-ai.c **** }
 231              		.loc 1 173 0
 232 001a 0020     		movs	r0, #0
 233              	.LVL27:
 234 001c 08BD     		pop	{r3, pc}
 235              	.LVL28:
 236              	.L20:
 167:X-CUBE-AI/App/app_x-cube-ai.c ****     ai_log_err(ai_network_get_error(network),
 237              		.loc 1 167 0
 238 001e 044B     		ldr	r3, .L21+4
 239 0020 1868     		ldr	r0, [r3]
 240              	.LVL29:
 241 0022 FFF7FEFF 		bl	ai_network_get_error
 242              	.LVL30:
 243 0026 0349     		ldr	r1, .L21+8
 244 0028 FFF7FEFF 		bl	ai_log_err
 245              	.LVL31:
 246              	.L22:
 247              		.align	2
 248              	.L21:
 249 002c 00000000 		.word	.LANCHOR1
 250 0030 00000000 		.word	.LANCHOR0
 251 0034 00000000 		.word	.LC5
 252              		.cfi_endproc
 253              	.LFE135:
 255              		.section	.text.acquire_and_process_data,"ax",%progbits
 256              		.align	1
 257              		.global	acquire_and_process_data
 258              		.syntax unified
 259              		.thumb
 260              		.thumb_func
 261              		.fpu fpv4-sp-d16
 263              	acquire_and_process_data:
 264              	.LFB136:
 174:X-CUBE-AI/App/app_x-cube-ai.c **** 
 175:X-CUBE-AI/App/app_x-cube-ai.c **** /* USER CODE BEGIN 2 */
 176:X-CUBE-AI/App/app_x-cube-ai.c **** int acquire_and_process_data(void * data)
 177:X-CUBE-AI/App/app_x-cube-ai.c **** {
 265              		.loc 1 177 0
 266              		.cfi_startproc
 267              		@ args = 0, pretend = 0, frame = 0
 268              		@ frame_needed = 0, uses_anonymous_args = 0
 269              		@ link register save eliminated.
 270              	.LVL32:
 271              	.LBB2:
 178:X-CUBE-AI/App/app_x-cube-ai.c ****   
 179:X-CUBE-AI/App/app_x-cube-ai.c ****   for( uint16_t i = 0; i < AI_NETWORK_IN_1_SIZE; i++ ){
 272              		.loc 1 179 0
 273 0000 0023     		movs	r3, #0
 274              	.LVL33:
 275 0002 B3F5447F 		cmp	r3, #784
 276 0006 0FD2     		bcs	.L30
 277              	.LBE2:
 177:X-CUBE-AI/App/app_x-cube-ai.c ****   
ARM GAS  /tmp/cch37VC5.s 			page 9


 278              		.loc 1 177 0
 279 0008 10B4     		push	{r4}
 280              	.LCFI6:
 281              		.cfi_def_cfa_offset 4
 282              		.cfi_offset 4, -4
 283              	.L25:
 284              	.LBB3:
 180:X-CUBE-AI/App/app_x-cube-ai.c ****   	*((ai_float *) data +i) = inputData[i];
 285              		.loc 1 180 0 discriminator 3
 286 000a 9900     		lsls	r1, r3, #2
 287 000c 4418     		adds	r4, r0, r1
 288 000e 074A     		ldr	r2, .L31
 289 0010 0A44     		add	r2, r2, r1
 290 0012 1268     		ldr	r2, [r2]	@ float
 291 0014 2260     		str	r2, [r4]	@ float
 179:X-CUBE-AI/App/app_x-cube-ai.c ****   	*((ai_float *) data +i) = inputData[i];
 292              		.loc 1 179 0 discriminator 3
 293 0016 0133     		adds	r3, r3, #1
 294              	.LVL34:
 295 0018 9BB2     		uxth	r3, r3
 296              	.LVL35:
 297 001a B3F5447F 		cmp	r3, #784
 298 001e F4D3     		bcc	.L25
 299              	.LBE3:
 181:X-CUBE-AI/App/app_x-cube-ai.c **** 	}
 182:X-CUBE-AI/App/app_x-cube-ai.c ****   return 0;
 183:X-CUBE-AI/App/app_x-cube-ai.c **** }
 300              		.loc 1 183 0
 301 0020 0020     		movs	r0, #0
 302              	.LVL36:
 303 0022 5DF8044B 		ldr	r4, [sp], #4
 304              	.LCFI7:
 305              		.cfi_restore 4
 306              		.cfi_def_cfa_offset 0
 307 0026 7047     		bx	lr
 308              	.LVL37:
 309              	.L30:
 310 0028 0020     		movs	r0, #0
 311              	.LVL38:
 312 002a 7047     		bx	lr
 313              	.L32:
 314              		.align	2
 315              	.L31:
 316 002c 00000000 		.word	.LANCHOR2
 317              		.cfi_endproc
 318              	.LFE136:
 320              		.section	.text.post_process,"ax",%progbits
 321              		.align	1
 322              		.global	post_process
 323              		.syntax unified
 324              		.thumb
 325              		.thumb_func
 326              		.fpu fpv4-sp-d16
 328              	post_process:
 329              	.LFB137:
 184:X-CUBE-AI/App/app_x-cube-ai.c **** 
 185:X-CUBE-AI/App/app_x-cube-ai.c **** int post_process(void * data)
ARM GAS  /tmp/cch37VC5.s 			page 10


 186:X-CUBE-AI/App/app_x-cube-ai.c **** {
 330              		.loc 1 186 0
 331              		.cfi_startproc
 332              		@ args = 0, pretend = 0, frame = 0
 333              		@ frame_needed = 0, uses_anonymous_args = 0
 334              		@ link register save eliminated.
 335              	.LVL39:
 336              	.LBB4:
 187:X-CUBE-AI/App/app_x-cube-ai.c ****   ai_float max = -10000;
 188:X-CUBE-AI/App/app_x-cube-ai.c ****   uint8_t maxID = 0;
 189:X-CUBE-AI/App/app_x-cube-ai.c **** 	
 190:X-CUBE-AI/App/app_x-cube-ai.c ****   for( uint8_t i = 0; i < AI_NETWORK_OUT_1_SIZE; i++ ){
 337              		.loc 1 190 0
 338 0000 0023     		movs	r3, #0
 339              	.LBE4:
 187:X-CUBE-AI/App/app_x-cube-ai.c ****   ai_float max = -10000;
 340              		.loc 1 187 0
 341 0002 9FED0A7A 		vldr.32	s14, .L39
 342              	.LBB5:
 343              		.loc 1 190 0
 344 0006 01E0     		b	.L34
 345              	.LVL40:
 346              	.L35:
 347              		.loc 1 190 0 is_stmt 0 discriminator 2
 348 0008 0133     		adds	r3, r3, #1
 349              	.LVL41:
 350 000a DBB2     		uxtb	r3, r3
 351              	.LVL42:
 352              	.L34:
 353              		.loc 1 190 0 discriminator 1
 354 000c 092B     		cmp	r3, #9
 355 000e 0BD8     		bhi	.L38
 191:X-CUBE-AI/App/app_x-cube-ai.c ****   	if ( *( (ai_float *)data+i) > max ){
 356              		.loc 1 191 0 is_stmt 1
 357 0010 00EB8302 		add	r2, r0, r3, lsl #2
 358 0014 D2ED007A 		vldr.32	s15, [r2]
 359 0018 B4EEE77A 		vcmpe.f32	s14, s15
 360 001c F1EE10FA 		vmrs	APSR_nzcv, FPSCR
 361 0020 F2D5     		bpl	.L35
 192:X-CUBE-AI/App/app_x-cube-ai.c **** 		max = *((ai_float *)data+i);
 362              		.loc 1 192 0
 363 0022 B0EE677A 		vmov.f32	s14, s15
 364              	.LVL43:
 365 0026 EFE7     		b	.L35
 366              	.LVL44:
 367              	.L38:
 368              	.LBE5:
 193:X-CUBE-AI/App/app_x-cube-ai.c **** 		maxID = i;
 194:X-CUBE-AI/App/app_x-cube-ai.c **** 	}
 195:X-CUBE-AI/App/app_x-cube-ai.c ****   }
 196:X-CUBE-AI/App/app_x-cube-ai.c ****   
 197:X-CUBE-AI/App/app_x-cube-ai.c **** //  for( uint8_t i = 0; i <= maxID; i++ ){
 198:X-CUBE-AI/App/app_x-cube-ai.c **** //	HAL_GPIO_WritePin(GPIOA, GPIO_PIN_9, GPIO_PIN_SET);	
 199:X-CUBE-AI/App/app_x-cube-ai.c **** //	HAL_GPIO_WritePin(GPIOA, GPIO_PIN_9, GPIO_PIN_RESET);
 200:X-CUBE-AI/App/app_x-cube-ai.c **** //	}
 201:X-CUBE-AI/App/app_x-cube-ai.c ****   
 202:X-CUBE-AI/App/app_x-cube-ai.c ****   return 1;
ARM GAS  /tmp/cch37VC5.s 			page 11


 203:X-CUBE-AI/App/app_x-cube-ai.c **** }
 369              		.loc 1 203 0
 370 0028 0120     		movs	r0, #1
 371              	.LVL45:
 372 002a 7047     		bx	lr
 373              	.L40:
 374              		.align	2
 375              	.L39:
 376 002c 00401CC6 		.word	3323740160
 377              		.cfi_endproc
 378              	.LFE137:
 380              		.section	.text.MX_X_CUBE_AI_Init,"ax",%progbits
 381              		.align	1
 382              		.global	MX_X_CUBE_AI_Init
 383              		.syntax unified
 384              		.thumb
 385              		.thumb_func
 386              		.fpu fpv4-sp-d16
 388              	MX_X_CUBE_AI_Init:
 389              	.LFB138:
 204:X-CUBE-AI/App/app_x-cube-ai.c **** /* USER CODE END 2 */
 205:X-CUBE-AI/App/app_x-cube-ai.c **** 
 206:X-CUBE-AI/App/app_x-cube-ai.c **** /*************************************************************************
 207:X-CUBE-AI/App/app_x-cube-ai.c ****   *
 208:X-CUBE-AI/App/app_x-cube-ai.c ****   */
 209:X-CUBE-AI/App/app_x-cube-ai.c **** void MX_X_CUBE_AI_Init(void)
 210:X-CUBE-AI/App/app_x-cube-ai.c **** {
 390              		.loc 1 210 0
 391              		.cfi_startproc
 392              		@ args = 0, pretend = 0, frame = 0
 393              		@ frame_needed = 0, uses_anonymous_args = 0
 394 0000 08B5     		push	{r3, lr}
 395              	.LCFI8:
 396              		.cfi_def_cfa_offset 8
 397              		.cfi_offset 3, -8
 398              		.cfi_offset 14, -4
 211:X-CUBE-AI/App/app_x-cube-ai.c ****     /* USER CODE BEGIN 5 */
 212:X-CUBE-AI/App/app_x-cube-ai.c ****   printf("\r\nTEMPLATE - initialization\r\n");
 399              		.loc 1 212 0
 400 0002 0448     		ldr	r0, .L43
 401 0004 FFF7FEFF 		bl	puts
 402              	.LVL46:
 213:X-CUBE-AI/App/app_x-cube-ai.c **** 
 214:X-CUBE-AI/App/app_x-cube-ai.c ****   ai_boostrap(ai_network_data_weights_get(), activations);
 403              		.loc 1 214 0
 404 0008 FFF7FEFF 		bl	ai_network_data_weights_get
 405              	.LVL47:
 406 000c 0249     		ldr	r1, .L43+4
 407 000e FFF7FEFF 		bl	ai_boostrap
 408              	.LVL48:
 409 0012 08BD     		pop	{r3, pc}
 410              	.L44:
 411              		.align	2
 412              	.L43:
 413 0014 00000000 		.word	.LC6
 414 0018 00000000 		.word	.LANCHOR3
 415              		.cfi_endproc
ARM GAS  /tmp/cch37VC5.s 			page 12


 416              	.LFE138:
 418              		.section	.text.MX_X_CUBE_AI_Process,"ax",%progbits
 419              		.align	1
 420              		.global	MX_X_CUBE_AI_Process
 421              		.syntax unified
 422              		.thumb
 423              		.thumb_func
 424              		.fpu fpv4-sp-d16
 426              	MX_X_CUBE_AI_Process:
 427              	.LFB139:
 215:X-CUBE-AI/App/app_x-cube-ai.c ****     /* USER CODE END 5 */
 216:X-CUBE-AI/App/app_x-cube-ai.c **** }
 217:X-CUBE-AI/App/app_x-cube-ai.c **** 
 218:X-CUBE-AI/App/app_x-cube-ai.c **** void MX_X_CUBE_AI_Process(void)
 219:X-CUBE-AI/App/app_x-cube-ai.c **** {
 428              		.loc 1 219 0
 429              		.cfi_startproc
 430              		@ args = 0, pretend = 0, frame = 0
 431              		@ frame_needed = 0, uses_anonymous_args = 0
 432 0000 08B5     		push	{r3, lr}
 433              	.LCFI9:
 434              		.cfi_def_cfa_offset 8
 435              		.cfi_offset 3, -8
 436              		.cfi_offset 14, -4
 437              	.LVL49:
 220:X-CUBE-AI/App/app_x-cube-ai.c ****     /* USER CODE BEGIN 6 */
 221:X-CUBE-AI/App/app_x-cube-ai.c ****   int res = -1;
 222:X-CUBE-AI/App/app_x-cube-ai.c ****   ai_float *in_data = NULL;
 223:X-CUBE-AI/App/app_x-cube-ai.c ****   ai_float *out_data = NULL;
 224:X-CUBE-AI/App/app_x-cube-ai.c **** 
 225:X-CUBE-AI/App/app_x-cube-ai.c ****   printf("TEMPLATE - run - main loop\r\n");
 438              		.loc 1 225 0
 439 0002 1548     		ldr	r0, .L52
 440 0004 FFF7FEFF 		bl	puts
 441              	.LVL50:
 226:X-CUBE-AI/App/app_x-cube-ai.c **** 
 227:X-CUBE-AI/App/app_x-cube-ai.c ****   if (network) {
 442              		.loc 1 227 0
 443 0008 144B     		ldr	r3, .L52+4
 444 000a 1B68     		ldr	r3, [r3]
 445 000c 13B3     		cbz	r3, .L45
 228:X-CUBE-AI/App/app_x-cube-ai.c **** 
 229:X-CUBE-AI/App/app_x-cube-ai.c ****     if ((network_info.n_inputs != 1) || (network_info.n_outputs != 1)) {
 446              		.loc 1 229 0
 447 000e 144B     		ldr	r3, .L52+8
 448 0010 1B6B     		ldr	r3, [r3, #48]
 449 0012 B3F1011F 		cmp	r3, #65537
 450 0016 10D0     		beq	.L47
 451              	.LBB6:
 230:X-CUBE-AI/App/app_x-cube-ai.c ****       ai_error err = {AI_ERROR_INVALID_PARAM, AI_ERROR_CODE_OUT_OF_RANGE};
 452              		.loc 1 230 0
 453 0018 0020     		movs	r0, #0
 454              	.LVL51:
 455 001a 1423     		movs	r3, #20
 456 001c 63F30700 		bfi	r0, r3, #0, #8
 457              	.LVL52:
 458 0020 2023     		movs	r3, #32
ARM GAS  /tmp/cch37VC5.s 			page 13


 459 0022 63F31F20 		bfi	r0, r3, #8, #24
 231:X-CUBE-AI/App/app_x-cube-ai.c ****       ai_log_err(err, "template code should be updated\r\n to support a model with multiple IO");
 460              		.loc 1 231 0
 461 0026 0F49     		ldr	r1, .L52+12
 462 0028 FFF7FEFF 		bl	ai_log_err
 463              	.LVL53:
 464              	.L51:
 465              	.LBE6:
 232:X-CUBE-AI/App/app_x-cube-ai.c ****       return;
 233:X-CUBE-AI/App/app_x-cube-ai.c ****     }
 234:X-CUBE-AI/App/app_x-cube-ai.c **** 
 235:X-CUBE-AI/App/app_x-cube-ai.c ****     /* 1 - Set the I/O data buffer */
 236:X-CUBE-AI/App/app_x-cube-ai.c **** 
 237:X-CUBE-AI/App/app_x-cube-ai.c **** #if AI_NETWORK_INPUTS_IN_ACTIVATIONS
 238:X-CUBE-AI/App/app_x-cube-ai.c ****     in_data = network_info.inputs[0].data;
 239:X-CUBE-AI/App/app_x-cube-ai.c **** #else
 240:X-CUBE-AI/App/app_x-cube-ai.c ****     in_data = in_data_s;
 241:X-CUBE-AI/App/app_x-cube-ai.c **** #endif
 242:X-CUBE-AI/App/app_x-cube-ai.c **** 
 243:X-CUBE-AI/App/app_x-cube-ai.c **** #if AI_NETWORK_OUTPUTS_IN_ACTIVATIONS
 244:X-CUBE-AI/App/app_x-cube-ai.c ****     out_data = network_info.outputs[0].data;
 245:X-CUBE-AI/App/app_x-cube-ai.c **** #else
 246:X-CUBE-AI/App/app_x-cube-ai.c ****     out_data = out_data_s;
 247:X-CUBE-AI/App/app_x-cube-ai.c **** #endif
 248:X-CUBE-AI/App/app_x-cube-ai.c **** 
 249:X-CUBE-AI/App/app_x-cube-ai.c ****     if ((!in_data) || (!out_data)) {
 250:X-CUBE-AI/App/app_x-cube-ai.c ****       printf("TEMPLATE - I/O buffers are invalid\r\n");
 251:X-CUBE-AI/App/app_x-cube-ai.c ****       return;
 252:X-CUBE-AI/App/app_x-cube-ai.c ****     }
 253:X-CUBE-AI/App/app_x-cube-ai.c **** 
 254:X-CUBE-AI/App/app_x-cube-ai.c ****     /* 2 - main loop */
 255:X-CUBE-AI/App/app_x-cube-ai.c ****     do {
 256:X-CUBE-AI/App/app_x-cube-ai.c ****       /* 1 - acquire and pre-process input data */
 257:X-CUBE-AI/App/app_x-cube-ai.c ****       res = acquire_and_process_data(in_data);
 258:X-CUBE-AI/App/app_x-cube-ai.c ****       /* 2 - process the data - call inference engine */
 259:X-CUBE-AI/App/app_x-cube-ai.c ****       if (res == 0)
 260:X-CUBE-AI/App/app_x-cube-ai.c ****         res = ai_run(in_data, out_data);
 466              		.loc 1 260 0
 467 002c 0E49     		ldr	r1, .L52+16
 468 002e 0F48     		ldr	r0, .L52+20
 469              	.LVL54:
 470 0030 FFF7FEFF 		bl	ai_run
 471              	.LVL55:
 472 0034 0346     		mov	r3, r0
 473              	.LVL56:
 474 0036 06E0     		b	.L48
 475              	.L49:
 261:X-CUBE-AI/App/app_x-cube-ai.c ****       /* 3- post-process the predictions */
 262:X-CUBE-AI/App/app_x-cube-ai.c ****       if (res == 0)
 263:X-CUBE-AI/App/app_x-cube-ai.c ****         res = post_process(out_data);
 264:X-CUBE-AI/App/app_x-cube-ai.c ****     } while (res==0);
 476              		.loc 1 264 0
 477 0038 63B9     		cbnz	r3, .L45
 478              	.LVL57:
 479              	.L47:
 257:X-CUBE-AI/App/app_x-cube-ai.c ****       /* 2 - process the data - call inference engine */
 480              		.loc 1 257 0
ARM GAS  /tmp/cch37VC5.s 			page 14


 481 003a 0C48     		ldr	r0, .L52+20
 482 003c FFF7FEFF 		bl	acquire_and_process_data
 483              	.LVL58:
 259:X-CUBE-AI/App/app_x-cube-ai.c ****         res = ai_run(in_data, out_data);
 484              		.loc 1 259 0
 485 0040 0346     		mov	r3, r0
 486 0042 0028     		cmp	r0, #0
 487 0044 F2D0     		beq	.L51
 488              	.L48:
 262:X-CUBE-AI/App/app_x-cube-ai.c ****         res = post_process(out_data);
 489              		.loc 1 262 0
 490 0046 002B     		cmp	r3, #0
 491 0048 F6D1     		bne	.L49
 263:X-CUBE-AI/App/app_x-cube-ai.c ****     } while (res==0);
 492              		.loc 1 263 0
 493 004a 0748     		ldr	r0, .L52+16
 494              	.LVL59:
 495 004c FFF7FEFF 		bl	post_process
 496              	.LVL60:
 497 0050 0346     		mov	r3, r0
 498              	.LVL61:
 499 0052 F1E7     		b	.L49
 500              	.LVL62:
 501              	.L45:
 502 0054 08BD     		pop	{r3, pc}
 503              	.L53:
 504 0056 00BF     		.align	2
 505              	.L52:
 506 0058 00000000 		.word	.LC7
 507 005c 00000000 		.word	.LANCHOR0
 508 0060 00000000 		.word	.LANCHOR1
 509 0064 1C000000 		.word	.LC8
 510 0068 00000000 		.word	.LANCHOR5
 511 006c 00000000 		.word	.LANCHOR4
 512              		.cfi_endproc
 513              	.LFE139:
 515              		.global	inputData
 516              		.section	.bss.activations,"aw",%nobits
 517              		.align	2
 518              		.set	.LANCHOR3,. + 0
 521              	activations:
 522 0000 00000000 		.space	29824
 522      00000000 
 522      00000000 
 522      00000000 
 522      00000000 
 523              		.section	.bss.in_data_s,"aw",%nobits
 524              		.align	2
 525              		.set	.LANCHOR4,. + 0
 528              	in_data_s:
 529 0000 00000000 		.space	12544
 529      00000000 
 529      00000000 
 529      00000000 
 529      00000000 
 530              		.section	.bss.network,"aw",%nobits
 531              		.align	2
ARM GAS  /tmp/cch37VC5.s 			page 15


 532              		.set	.LANCHOR0,. + 0
 535              	network:
 536 0000 00000000 		.space	4
 537              		.section	.bss.network_info,"aw",%nobits
 538              		.align	2
 539              		.set	.LANCHOR1,. + 0
 542              	network_info:
 543 0000 00000000 		.space	116
 543      00000000 
 543      00000000 
 543      00000000 
 543      00000000 
 544              		.section	.bss.out_data_s,"aw",%nobits
 545              		.align	2
 546              		.set	.LANCHOR5,. + 0
 549              	out_data_s:
 550 0000 00000000 		.space	160
 550      00000000 
 550      00000000 
 550      00000000 
 550      00000000 
 551              		.section	.data.inputData,"aw",%progbits
 552              		.align	2
 553              		.set	.LANCHOR2,. + 0
 556              	inputData:
 557 0000 0000803F 		.word	1065353216
 558 0004 0000803F 		.word	1065353216
 559 0008 0000803F 		.word	1065353216
 560 000c 0000803F 		.word	1065353216
 561 0010 0000803F 		.word	1065353216
 562 0014 0000803F 		.word	1065353216
 563 0018 0000803F 		.word	1065353216
 564 001c 0000803F 		.word	1065353216
 565 0020 0000803F 		.word	1065353216
 566 0024 0000803F 		.word	1065353216
 567 0028 0000803F 		.word	1065353216
 568 002c 0000803F 		.word	1065353216
 569 0030 0000803F 		.word	1065353216
 570 0034 0000803F 		.word	1065353216
 571 0038 0000803F 		.word	1065353216
 572 003c 0000803F 		.word	1065353216
 573 0040 0000803F 		.word	1065353216
 574 0044 0000803F 		.word	1065353216
 575 0048 0000803F 		.word	1065353216
 576 004c 0000803F 		.word	1065353216
 577 0050 0000803F 		.word	1065353216
 578 0054 0000803F 		.word	1065353216
 579 0058 0000803F 		.word	1065353216
 580 005c 0000803F 		.word	1065353216
 581 0060 0000803F 		.word	1065353216
 582 0064 0000803F 		.word	1065353216
 583 0068 0000803F 		.word	1065353216
 584 006c 0000803F 		.word	1065353216
 585 0070 0000803F 		.word	1065353216
 586 0074 0000803F 		.word	1065353216
 587 0078 0000803F 		.word	1065353216
 588 007c 0000803F 		.word	1065353216
ARM GAS  /tmp/cch37VC5.s 			page 16


 589 0080 0000803F 		.word	1065353216
 590 0084 0000803F 		.word	1065353216
 591 0088 0000803F 		.word	1065353216
 592 008c 0000803F 		.word	1065353216
 593 0090 0000803F 		.word	1065353216
 594 0094 0000803F 		.word	1065353216
 595 0098 0000803F 		.word	1065353216
 596 009c 0000803F 		.word	1065353216
 597 00a0 0000803F 		.word	1065353216
 598 00a4 0000803F 		.word	1065353216
 599 00a8 0000803F 		.word	1065353216
 600 00ac 0000803F 		.word	1065353216
 601 00b0 0000803F 		.word	1065353216
 602 00b4 0000803F 		.word	1065353216
 603 00b8 0000803F 		.word	1065353216
 604 00bc 0000803F 		.word	1065353216
 605 00c0 0000803F 		.word	1065353216
 606 00c4 0000803F 		.word	1065353216
 607 00c8 0000803F 		.word	1065353216
 608 00cc 0000803F 		.word	1065353216
 609 00d0 0000803F 		.word	1065353216
 610 00d4 0000803F 		.word	1065353216
 611 00d8 0000803F 		.word	1065353216
 612 00dc 0000803F 		.word	1065353216
 613 00e0 0000803F 		.word	1065353216
 614 00e4 0000803F 		.word	1065353216
 615 00e8 0000803F 		.word	1065353216
 616 00ec 0000803F 		.word	1065353216
 617 00f0 0000803F 		.word	1065353216
 618 00f4 0000803F 		.word	1065353216
 619 00f8 0000803F 		.word	1065353216
 620 00fc 0000803F 		.word	1065353216
 621 0100 0000803F 		.word	1065353216
 622 0104 0000803F 		.word	1065353216
 623 0108 0000803F 		.word	1065353216
 624 010c 0000803F 		.word	1065353216
 625 0110 0000803F 		.word	1065353216
 626 0114 0000803F 		.word	1065353216
 627 0118 0000803F 		.word	1065353216
 628 011c 0000803F 		.word	1065353216
 629 0120 0000803F 		.word	1065353216
 630 0124 0000803F 		.word	1065353216
 631 0128 0000803F 		.word	1065353216
 632 012c 0000803F 		.word	1065353216
 633 0130 0000803F 		.word	1065353216
 634 0134 0000803F 		.word	1065353216
 635 0138 0000803F 		.word	1065353216
 636 013c 0000803F 		.word	1065353216
 637 0140 0000803F 		.word	1065353216
 638 0144 0000803F 		.word	1065353216
 639 0148 0000803F 		.word	1065353216
 640 014c 0000803F 		.word	1065353216
 641 0150 0000803F 		.word	1065353216
 642 0154 0000803F 		.word	1065353216
 643 0158 0000803F 		.word	1065353216
 644 015c 0000803F 		.word	1065353216
 645 0160 0000803F 		.word	1065353216
ARM GAS  /tmp/cch37VC5.s 			page 17


 646 0164 0000803F 		.word	1065353216
 647 0168 0000803F 		.word	1065353216
 648 016c 0000803F 		.word	1065353216
 649 0170 0000803F 		.word	1065353216
 650 0174 0000803F 		.word	1065353216
 651 0178 0000803F 		.word	1065353216
 652 017c 0000803F 		.word	1065353216
 653 0180 0000803F 		.word	1065353216
 654 0184 0000803F 		.word	1065353216
 655 0188 0000803F 		.word	1065353216
 656 018c 0000803F 		.word	1065353216
 657 0190 0000803F 		.word	1065353216
 658 0194 0000803F 		.word	1065353216
 659 0198 0000803F 		.word	1065353216
 660 019c 0000803F 		.word	1065353216
 661 01a0 0000803F 		.word	1065353216
 662 01a4 0000803F 		.word	1065353216
 663 01a8 0000803F 		.word	1065353216
 664 01ac 0000803F 		.word	1065353216
 665 01b0 0000803F 		.word	1065353216
 666 01b4 0000803F 		.word	1065353216
 667 01b8 0000803F 		.word	1065353216
 668 01bc 0000803F 		.word	1065353216
 669 01c0 0000803F 		.word	1065353216
 670 01c4 0000803F 		.word	1065353216
 671 01c8 0000803F 		.word	1065353216
 672 01cc 0000803F 		.word	1065353216
 673 01d0 0000803F 		.word	1065353216
 674 01d4 0000803F 		.word	1065353216
 675 01d8 F1F0703F 		.word	1064366321
 676 01dc A1A0203F 		.word	1059102881
 677 01e0 EDECEC3E 		.word	1055714541
 678 01e4 F1F0F03E 		.word	1055977713
 679 01e8 F5F4F43E 		.word	1056240885
 680 01ec F7F6F63E 		.word	1056372471
 681 01f0 F5F4F43E 		.word	1056240885
 682 01f4 F5F4F43E 		.word	1056240885
 683 01f8 F5F4F43E 		.word	1056240885
 684 01fc F5F4F43E 		.word	1056240885
 685 0200 F5F4F43E 		.word	1056240885
 686 0204 F3F2F23E 		.word	1056109299
 687 0208 EFEEEE3E 		.word	1055846127
 688 020c 8584043F 		.word	1057260677
 689 0210 CAC9493F 		.word	1061800394
 690 0214 FFFE7E3F 		.word	1065287423
 691 0218 0000803F 		.word	1065353216
 692 021c 0000803F 		.word	1065353216
 693 0220 0000803F 		.word	1065353216
 694 0224 0000803F 		.word	1065353216
 695 0228 0000803F 		.word	1065353216
 696 022c 0000803F 		.word	1065353216
 697 0230 0000803F 		.word	1065353216
 698 0234 0000803F 		.word	1065353216
 699 0238 0000803F 		.word	1065353216
 700 023c 0000803F 		.word	1065353216
 701 0240 0000803F 		.word	1065353216
 702 0244 0000803F 		.word	1065353216
ARM GAS  /tmp/cch37VC5.s 			page 18


 703 0248 8F8E0E3F 		.word	1057918607
 704 024c 8180803B 		.word	998277249
 705 0250 00000000 		.word	0
 706 0254 00000000 		.word	0
 707 0258 00000000 		.word	0
 708 025c 00000000 		.word	0
 709 0260 00000000 		.word	0
 710 0264 00000000 		.word	0
 711 0268 00000000 		.word	0
 712 026c 00000000 		.word	0
 713 0270 00000000 		.word	0
 714 0274 00000000 		.word	0
 715 0278 00000000 		.word	0
 716 027c 00000000 		.word	0
 717 0280 8F8E8E3E 		.word	1049529999
 718 0284 F0EF6F3F 		.word	1064300528
 719 0288 0000803F 		.word	1065353216
 720 028c 0000803F 		.word	1065353216
 721 0290 0000803F 		.word	1065353216
 722 0294 0000803F 		.word	1065353216
 723 0298 0000803F 		.word	1065353216
 724 029c 0000803F 		.word	1065353216
 725 02a0 0000803F 		.word	1065353216
 726 02a4 0000803F 		.word	1065353216
 727 02a8 0000803F 		.word	1065353216
 728 02ac 0000803F 		.word	1065353216
 729 02b0 0000803F 		.word	1065353216
 730 02b4 F3F2723F 		.word	1064497907
 731 02b8 8584843E 		.word	1048872069
 732 02bc 00000000 		.word	0
 733 02c0 00000000 		.word	0
 734 02c4 8180803C 		.word	1015054465
 735 02c8 8180803C 		.word	1015054465
 736 02cc 8180803C 		.word	1015054465
 737 02d0 C1C0403C 		.word	1010876609
 738 02d4 C1C0403C 		.word	1010876609
 739 02d8 8180803C 		.word	1015054465
 740 02dc C1C0403C 		.word	1010876609
 741 02e0 C1C0403C 		.word	1010876609
 742 02e4 C1C0403C 		.word	1010876609
 743 02e8 8180803B 		.word	998277249
 744 02ec 8180803C 		.word	1015054465
 745 02f0 C9C8C83E 		.word	1053345993
 746 02f4 F4F3733F 		.word	1064563700
 747 02f8 0000803F 		.word	1065353216
 748 02fc 0000803F 		.word	1065353216
 749 0300 0000803F 		.word	1065353216
 750 0304 0000803F 		.word	1065353216
 751 0308 0000803F 		.word	1065353216
 752 030c 0000803F 		.word	1065353216
 753 0310 0000803F 		.word	1065353216
 754 0314 0000803F 		.word	1065353216
 755 0318 0000803F 		.word	1065353216
 756 031c 0000803F 		.word	1065353216
 757 0320 0000803F 		.word	1065353216
 758 0324 E9E8683F 		.word	1063839977
 759 0328 EDEC6C3E 		.word	1047325933
ARM GAS  /tmp/cch37VC5.s 			page 19


 760 032c 00000000 		.word	0
 761 0330 9190103E 		.word	1041272977
 762 0334 9897173F 		.word	1058510744
 763 0338 B8B7373F 		.word	1060616120
 764 033c AEAD2D3F 		.word	1059958190
 765 0340 ADAC2C3F 		.word	1059892397
 766 0344 ADAC2C3F 		.word	1059892397
 767 0348 ADAC2C3F 		.word	1059892397
 768 034c ADAC2C3F 		.word	1059892397
 769 0350 ACAB2B3F 		.word	1059826604
 770 0354 ACAB2B3F 		.word	1059826604
 771 0358 AAA9293F 		.word	1059695018
 772 035c B7B6363F 		.word	1060550327
 773 0360 E7E6663F 		.word	1063708391
 774 0364 0000803F 		.word	1065353216
 775 0368 0000803F 		.word	1065353216
 776 036c 0000803F 		.word	1065353216
 777 0370 0000803F 		.word	1065353216
 778 0374 0000803F 		.word	1065353216
 779 0378 0000803F 		.word	1065353216
 780 037c 0000803F 		.word	1065353216
 781 0380 0000803F 		.word	1065353216
 782 0384 0000803F 		.word	1065353216
 783 0388 0000803F 		.word	1065353216
 784 038c 0000803F 		.word	1065353216
 785 0390 0000803F 		.word	1065353216
 786 0394 E9E8683F 		.word	1063839977
 787 0398 F9F8783E 		.word	1048115449
 788 039c 00000000 		.word	0
 789 03a0 DDDC5C3E 		.word	1046273245
 790 03a4 EEED6D3F 		.word	1064168942
 791 03a8 0000803F 		.word	1065353216
 792 03ac 0000803F 		.word	1065353216
 793 03b0 0000803F 		.word	1065353216
 794 03b4 0000803F 		.word	1065353216
 795 03b8 0000803F 		.word	1065353216
 796 03bc 0000803F 		.word	1065353216
 797 03c0 0000803F 		.word	1065353216
 798 03c4 0000803F 		.word	1065353216
 799 03c8 0000803F 		.word	1065353216
 800 03cc 0000803F 		.word	1065353216
 801 03d0 0000803F 		.word	1065353216
 802 03d4 0000803F 		.word	1065353216
 803 03d8 0000803F 		.word	1065353216
 804 03dc 0000803F 		.word	1065353216
 805 03e0 0000803F 		.word	1065353216
 806 03e4 0000803F 		.word	1065353216
 807 03e8 0000803F 		.word	1065353216
 808 03ec 0000803F 		.word	1065353216
 809 03f0 0000803F 		.word	1065353216
 810 03f4 0000803F 		.word	1065353216
 811 03f8 0000803F 		.word	1065353216
 812 03fc 0000803F 		.word	1065353216
 813 0400 0000803F 		.word	1065353216
 814 0404 E9E8683F 		.word	1063839977
 815 0408 F9F8783E 		.word	1048115449
 816 040c 00000000 		.word	0
ARM GAS  /tmp/cch37VC5.s 			page 20


 817 0410 D1D0503E 		.word	1045483729
 818 0414 E6E5653F 		.word	1063642598
 819 0418 0000803F 		.word	1065353216
 820 041c 0000803F 		.word	1065353216
 821 0420 0000803F 		.word	1065353216
 822 0424 0000803F 		.word	1065353216
 823 0428 0000803F 		.word	1065353216
 824 042c 0000803F 		.word	1065353216
 825 0430 0000803F 		.word	1065353216
 826 0434 0000803F 		.word	1065353216
 827 0438 0000803F 		.word	1065353216
 828 043c 0000803F 		.word	1065353216
 829 0440 0000803F 		.word	1065353216
 830 0444 0000803F 		.word	1065353216
 831 0448 0000803F 		.word	1065353216
 832 044c 0000803F 		.word	1065353216
 833 0450 0000803F 		.word	1065353216
 834 0454 0000803F 		.word	1065353216
 835 0458 0000803F 		.word	1065353216
 836 045c 0000803F 		.word	1065353216
 837 0460 0000803F 		.word	1065353216
 838 0464 0000803F 		.word	1065353216
 839 0468 0000803F 		.word	1065353216
 840 046c 0000803F 		.word	1065353216
 841 0470 0000803F 		.word	1065353216
 842 0474 E9E8683F 		.word	1063839977
 843 0478 F5F4743E 		.word	1047852277
 844 047c 00000000 		.word	0
 845 0480 D5D4543E 		.word	1045746901
 846 0484 EEED6D3F 		.word	1064168942
 847 0488 0000803F 		.word	1065353216
 848 048c F7F6763F 		.word	1064761079
 849 0490 DCDB5B3F 		.word	1062984668
 850 0494 C0BF3F3F 		.word	1061142464
 851 0498 A9A8283F 		.word	1059629225
 852 049c 9C9B1B3F 		.word	1058773916
 853 04a0 9796163F 		.word	1058444951
 854 04a4 9493133F 		.word	1058247572
 855 04a8 9291113F 		.word	1058115986
 856 04ac A2A1213F 		.word	1059168674
 857 04b0 DCDB5B3F 		.word	1062984668
 858 04b4 0000803F 		.word	1065353216
 859 04b8 0000803F 		.word	1065353216
 860 04bc 0000803F 		.word	1065353216
 861 04c0 0000803F 		.word	1065353216
 862 04c4 0000803F 		.word	1065353216
 863 04c8 0000803F 		.word	1065353216
 864 04cc 0000803F 		.word	1065353216
 865 04d0 0000803F 		.word	1065353216
 866 04d4 0000803F 		.word	1065353216
 867 04d8 0000803F 		.word	1065353216
 868 04dc 0000803F 		.word	1065353216
 869 04e0 0000803F 		.word	1065353216
 870 04e4 E9E8683F 		.word	1063839977
 871 04e8 FDFC7C3E 		.word	1048378621
 872 04ec 00000000 		.word	0
 873 04f0 D5D4543E 		.word	1045746901
ARM GAS  /tmp/cch37VC5.s 			page 21


 874 04f4 AAA9293F 		.word	1059695018
 875 04f8 9291113F 		.word	1058115986
 876 04fc A7A6A63E 		.word	1051109031
 877 0500 B1B0303E 		.word	1043378353
 878 0504 8988883D 		.word	1032358025
 879 0508 8180803B 		.word	998277249
 880 050c 00000000 		.word	0
 881 0510 00000000 		.word	0
 882 0514 00000000 		.word	0
 883 0518 00000000 		.word	0
 884 051c 00000000 		.word	0
 885 0520 D5D4543E 		.word	1045746901
 886 0524 BEBD3D3F 		.word	1061010878
 887 0528 0000803F 		.word	1065353216
 888 052c 0000803F 		.word	1065353216
 889 0530 0000803F 		.word	1065353216
 890 0534 0000803F 		.word	1065353216
 891 0538 0000803F 		.word	1065353216
 892 053c 0000803F 		.word	1065353216
 893 0540 0000803F 		.word	1065353216
 894 0544 0000803F 		.word	1065353216
 895 0548 0000803F 		.word	1065353216
 896 054c 0000803F 		.word	1065353216
 897 0550 0000803F 		.word	1065353216
 898 0554 E7E6663F 		.word	1063708391
 899 0558 E9E8683E 		.word	1047062761
 900 055c 00000000 		.word	0
 901 0560 A1A0A03D 		.word	1033937057
 902 0564 B1B0B03D 		.word	1034989745
 903 0568 00000000 		.word	0
 904 056c 00000000 		.word	0
 905 0570 00000000 		.word	0
 906 0574 00000000 		.word	0
 907 0578 00000000 		.word	0
 908 057c 00000000 		.word	0
 909 0580 00000000 		.word	0
 910 0584 00000000 		.word	0
 911 0588 00000000 		.word	0
 912 058c 00000000 		.word	0
 913 0590 00000000 		.word	0
 914 0594 E5E4643E 		.word	1046799589
 915 0598 E2E1613F 		.word	1063379426
 916 059c 0000803F 		.word	1065353216
 917 05a0 0000803F 		.word	1065353216
 918 05a4 0000803F 		.word	1065353216
 919 05a8 0000803F 		.word	1065353216
 920 05ac 0000803F 		.word	1065353216
 921 05b0 0000803F 		.word	1065353216
 922 05b4 0000803F 		.word	1065353216
 923 05b8 0000803F 		.word	1065353216
 924 05bc 0000803F 		.word	1065353216
 925 05c0 0000803F 		.word	1065353216
 926 05c4 EBEA6A3F 		.word	1063971563
 927 05c8 C9C8483E 		.word	1044957385
 928 05cc 00000000 		.word	0
 929 05d0 00000000 		.word	0
 930 05d4 00000000 		.word	0
ARM GAS  /tmp/cch37VC5.s 			page 22


 931 05d8 00000000 		.word	0
 932 05dc B9B8B83D 		.word	1035516089
 933 05e0 EDEC6C3E 		.word	1047325933
 934 05e4 C1C0C03E 		.word	1052819649
 935 05e8 FDFCFC3E 		.word	1056767229
 936 05ec 8D8C0C3F 		.word	1057787021
 937 05f0 9291113F 		.word	1058115986
 938 05f4 9A99193F 		.word	1058642330
 939 05f8 9392123F 		.word	1058181779
 940 05fc 8180803E 		.word	1048608897
 941 0600 00000000 		.word	0
 942 0604 00000000 		.word	0
 943 0608 9C9B1B3F 		.word	1058773916
 944 060c 0000803F 		.word	1065353216
 945 0610 0000803F 		.word	1065353216
 946 0614 0000803F 		.word	1065353216
 947 0618 0000803F 		.word	1065353216
 948 061c 0000803F 		.word	1065353216
 949 0620 0000803F 		.word	1065353216
 950 0624 0000803F 		.word	1065353216
 951 0628 0000803F 		.word	1065353216
 952 062c 0000803F 		.word	1065353216
 953 0630 0000803F 		.word	1065353216
 954 0634 FDFC7C3F 		.word	1065155837
 955 0638 DDDCDC3E 		.word	1054661853
 956 063c 00000000 		.word	0
 957 0640 00000000 		.word	0
 958 0644 F9F8783E 		.word	1048115449
 959 0648 9190103F 		.word	1058050193
 960 064c C8C7473F 		.word	1061668808
 961 0650 E9E8683F 		.word	1063839977
 962 0654 FDFC7C3F 		.word	1065155837
 963 0658 0000803F 		.word	1065353216
 964 065c 0000803F 		.word	1065353216
 965 0660 0000803F 		.word	1065353216
 966 0664 0000803F 		.word	1065353216
 967 0668 0000803F 		.word	1065353216
 968 066c A7A6263F 		.word	1059497639
 969 0670 C1C0403C 		.word	1010876609
 970 0674 00000000 		.word	0
 971 0678 E9E8E83E 		.word	1055451369
 972 067c 0000803F 		.word	1065353216
 973 0680 0000803F 		.word	1065353216
 974 0684 0000803F 		.word	1065353216
 975 0688 0000803F 		.word	1065353216
 976 068c 0000803F 		.word	1065353216
 977 0690 0000803F 		.word	1065353216
 978 0694 0000803F 		.word	1065353216
 979 0698 0000803F 		.word	1065353216
 980 069c 0000803F 		.word	1065353216
 981 06a0 0000803F 		.word	1065353216
 982 06a4 0000803F 		.word	1065353216
 983 06a8 E5E4643F 		.word	1063576805
 984 06ac 9392123F 		.word	1058181779
 985 06b0 9A99193F 		.word	1058642330
 986 06b4 E6E5653F 		.word	1063642598
 987 06b8 0000803F 		.word	1065353216
ARM GAS  /tmp/cch37VC5.s 			page 23


 988 06bc 0000803F 		.word	1065353216
 989 06c0 0000803F 		.word	1065353216
 990 06c4 0000803F 		.word	1065353216
 991 06c8 0000803F 		.word	1065353216
 992 06cc 0000803F 		.word	1065353216
 993 06d0 0000803F 		.word	1065353216
 994 06d4 0000803F 		.word	1065353216
 995 06d8 0000803F 		.word	1065353216
 996 06dc C3C2423F 		.word	1061339843
 997 06e0 E1E0603D 		.word	1029759201
 998 06e4 00000000 		.word	0
 999 06e8 D1D0D03E 		.word	1053872337
 1000 06ec 0000803F 		.word	1065353216
 1001 06f0 0000803F 		.word	1065353216
 1002 06f4 0000803F 		.word	1065353216
 1003 06f8 0000803F 		.word	1065353216
 1004 06fc 0000803F 		.word	1065353216
 1005 0700 0000803F 		.word	1065353216
 1006 0704 0000803F 		.word	1065353216
 1007 0708 0000803F 		.word	1065353216
 1008 070c 0000803F 		.word	1065353216
 1009 0710 0000803F 		.word	1065353216
 1010 0714 0000803F 		.word	1065353216
 1011 0718 0000803F 		.word	1065353216
 1012 071c 0000803F 		.word	1065353216
 1013 0720 0000803F 		.word	1065353216
 1014 0724 0000803F 		.word	1065353216
 1015 0728 0000803F 		.word	1065353216
 1016 072c 0000803F 		.word	1065353216
 1017 0730 0000803F 		.word	1065353216
 1018 0734 0000803F 		.word	1065353216
 1019 0738 0000803F 		.word	1065353216
 1020 073c 0000803F 		.word	1065353216
 1021 0740 0000803F 		.word	1065353216
 1022 0744 0000803F 		.word	1065353216
 1023 0748 0000803F 		.word	1065353216
 1024 074c C2C1413F 		.word	1061274050
 1025 0750 9190903D 		.word	1032884369
 1026 0754 00000000 		.word	0
 1027 0758 C9C8C83E 		.word	1053345993
 1028 075c FFFE7E3F 		.word	1065287423
 1029 0760 0000803F 		.word	1065353216
 1030 0764 0000803F 		.word	1065353216
 1031 0768 0000803F 		.word	1065353216
 1032 076c 0000803F 		.word	1065353216
 1033 0770 0000803F 		.word	1065353216
 1034 0774 0000803F 		.word	1065353216
 1035 0778 0000803F 		.word	1065353216
 1036 077c 0000803F 		.word	1065353216
 1037 0780 0000803F 		.word	1065353216
 1038 0784 0000803F 		.word	1065353216
 1039 0788 0000803F 		.word	1065353216
 1040 078c 0000803F 		.word	1065353216
 1041 0790 0000803F 		.word	1065353216
 1042 0794 0000803F 		.word	1065353216
 1043 0798 0000803F 		.word	1065353216
 1044 079c 0000803F 		.word	1065353216
ARM GAS  /tmp/cch37VC5.s 			page 24


 1045 07a0 0000803F 		.word	1065353216
 1046 07a4 0000803F 		.word	1065353216
 1047 07a8 0000803F 		.word	1065353216
 1048 07ac 0000803F 		.word	1065353216
 1049 07b0 0000803F 		.word	1065353216
 1050 07b4 0000803F 		.word	1065353216
 1051 07b8 0000803F 		.word	1065353216
 1052 07bc BBBA3A3F 		.word	1060813499
 1053 07c0 A1A0203D 		.word	1025548449
 1054 07c4 00000000 		.word	0
 1055 07c8 D1D0D03E 		.word	1053872337
 1056 07cc 0000803F 		.word	1065353216
 1057 07d0 0000803F 		.word	1065353216
 1058 07d4 0000803F 		.word	1065353216
 1059 07d8 0000803F 		.word	1065353216
 1060 07dc 0000803F 		.word	1065353216
 1061 07e0 0000803F 		.word	1065353216
 1062 07e4 0000803F 		.word	1065353216
 1063 07e8 0000803F 		.word	1065353216
 1064 07ec 0000803F 		.word	1065353216
 1065 07f0 0000803F 		.word	1065353216
 1066 07f4 0000803F 		.word	1065353216
 1067 07f8 0000803F 		.word	1065353216
 1068 07fc 0000803F 		.word	1065353216
 1069 0800 0000803F 		.word	1065353216
 1070 0804 0000803F 		.word	1065353216
 1071 0808 0000803F 		.word	1065353216
 1072 080c 0000803F 		.word	1065353216
 1073 0810 0000803F 		.word	1065353216
 1074 0814 0000803F 		.word	1065353216
 1075 0818 0000803F 		.word	1065353216
 1076 081c 0000803F 		.word	1065353216
 1077 0820 0000803F 		.word	1065353216
 1078 0824 0000803F 		.word	1065353216
 1079 0828 0000803F 		.word	1065353216
 1080 082c 9493133F 		.word	1058247572
 1081 0830 00000000 		.word	0
 1082 0834 00000000 		.word	0
 1083 0838 8685053F 		.word	1057326470
 1084 083c 0000803F 		.word	1065353216
 1085 0840 0000803F 		.word	1065353216
 1086 0844 0000803F 		.word	1065353216
 1087 0848 0000803F 		.word	1065353216
 1088 084c 0000803F 		.word	1065353216
 1089 0850 0000803F 		.word	1065353216
 1090 0854 0000803F 		.word	1065353216
 1091 0858 0000803F 		.word	1065353216
 1092 085c 0000803F 		.word	1065353216
 1093 0860 0000803F 		.word	1065353216
 1094 0864 0000803F 		.word	1065353216
 1095 0868 0000803F 		.word	1065353216
 1096 086c 0000803F 		.word	1065353216
 1097 0870 0000803F 		.word	1065353216
 1098 0874 0000803F 		.word	1065353216
 1099 0878 0000803F 		.word	1065353216
 1100 087c 0000803F 		.word	1065353216
 1101 0880 0000803F 		.word	1065353216
ARM GAS  /tmp/cch37VC5.s 			page 25


 1102 0884 0000803F 		.word	1065353216
 1103 0888 0000803F 		.word	1065353216
 1104 088c 0000803F 		.word	1065353216
 1105 0890 0000803F 		.word	1065353216
 1106 0894 0000803F 		.word	1065353216
 1107 0898 F7F6763F 		.word	1064761079
 1108 089c 9D9C9C3E 		.word	1050451101
 1109 08a0 00000000 		.word	0
 1110 08a4 8180003D 		.word	1023443073
 1111 08a8 B7B6363F 		.word	1060550327
 1112 08ac 0000803F 		.word	1065353216
 1113 08b0 0000803F 		.word	1065353216
 1114 08b4 0000803F 		.word	1065353216
 1115 08b8 0000803F 		.word	1065353216
 1116 08bc 0000803F 		.word	1065353216
 1117 08c0 0000803F 		.word	1065353216
 1118 08c4 0000803F 		.word	1065353216
 1119 08c8 0000803F 		.word	1065353216
 1120 08cc 0000803F 		.word	1065353216
 1121 08d0 0000803F 		.word	1065353216
 1122 08d4 0000803F 		.word	1065353216
 1123 08d8 0000803F 		.word	1065353216
 1124 08dc 0000803F 		.word	1065353216
 1125 08e0 0000803F 		.word	1065353216
 1126 08e4 0000803F 		.word	1065353216
 1127 08e8 0000803F 		.word	1065353216
 1128 08ec 0000803F 		.word	1065353216
 1129 08f0 0000803F 		.word	1065353216
 1130 08f4 0000803F 		.word	1065353216
 1131 08f8 0000803F 		.word	1065353216
 1132 08fc 0000803F 		.word	1065353216
 1133 0900 0000803F 		.word	1065353216
 1134 0904 0000803F 		.word	1065353216
 1135 0908 A6A5253F 		.word	1059431846
 1136 090c 8180003D 		.word	1023443073
 1137 0910 00000000 		.word	0
 1138 0914 8584843E 		.word	1048872069
 1139 0918 EEED6D3F 		.word	1064168942
 1140 091c 0000803F 		.word	1065353216
 1141 0920 0000803F 		.word	1065353216
 1142 0924 0000803F 		.word	1065353216
 1143 0928 0000803F 		.word	1065353216
 1144 092c 0000803F 		.word	1065353216
 1145 0930 0000803F 		.word	1065353216
 1146 0934 0000803F 		.word	1065353216
 1147 0938 0000803F 		.word	1065353216
 1148 093c 0000803F 		.word	1065353216
 1149 0940 0000803F 		.word	1065353216
 1150 0944 0000803F 		.word	1065353216
 1151 0948 0000803F 		.word	1065353216
 1152 094c 0000803F 		.word	1065353216
 1153 0950 0000803F 		.word	1065353216
 1154 0954 0000803F 		.word	1065353216
 1155 0958 0000803F 		.word	1065353216
 1156 095c 0000803F 		.word	1065353216
 1157 0960 0000803F 		.word	1065353216
 1158 0964 0000803F 		.word	1065353216
ARM GAS  /tmp/cch37VC5.s 			page 26


 1159 0968 0000803F 		.word	1065353216
 1160 096c 0000803F 		.word	1065353216
 1161 0970 0000803F 		.word	1065353216
 1162 0974 C3C2423F 		.word	1061339843
 1163 0978 A9A8283E 		.word	1042852009
 1164 097c 00000000 		.word	0
 1165 0980 00000000 		.word	0
 1166 0984 9C9B1B3F 		.word	1058773916
 1167 0988 0000803F 		.word	1065353216
 1168 098c 0000803F 		.word	1065353216
 1169 0990 0000803F 		.word	1065353216
 1170 0994 0000803F 		.word	1065353216
 1171 0998 0000803F 		.word	1065353216
 1172 099c 0000803F 		.word	1065353216
 1173 09a0 0000803F 		.word	1065353216
 1174 09a4 0000803F 		.word	1065353216
 1175 09a8 0000803F 		.word	1065353216
 1176 09ac 0000803F 		.word	1065353216
 1177 09b0 0000803F 		.word	1065353216
 1178 09b4 0000803F 		.word	1065353216
 1179 09b8 0000803F 		.word	1065353216
 1180 09bc 0000803F 		.word	1065353216
 1181 09c0 0000803F 		.word	1065353216
 1182 09c4 0000803F 		.word	1065353216
 1183 09c8 0000803F 		.word	1065353216
 1184 09cc 0000803F 		.word	1065353216
 1185 09d0 0000803F 		.word	1065353216
 1186 09d4 0000803F 		.word	1065353216
 1187 09d8 0000803F 		.word	1065353216
 1188 09dc EFEE6E3F 		.word	1064234735
 1189 09e0 9A99193F 		.word	1058642330
 1190 09e4 8D8C0C3E 		.word	1041009805
 1191 09e8 00000000 		.word	0
 1192 09ec 00000000 		.word	0
 1193 09f0 ADACAC3E 		.word	1051503789
 1194 09f4 F2F1713F 		.word	1064432114
 1195 09f8 0000803F 		.word	1065353216
 1196 09fc 0000803F 		.word	1065353216
 1197 0a00 0000803F 		.word	1065353216
 1198 0a04 0000803F 		.word	1065353216
 1199 0a08 0000803F 		.word	1065353216
 1200 0a0c 0000803F 		.word	1065353216
 1201 0a10 0000803F 		.word	1065353216
 1202 0a14 0000803F 		.word	1065353216
 1203 0a18 0000803F 		.word	1065353216
 1204 0a1c 0000803F 		.word	1065353216
 1205 0a20 FAF9793F 		.word	1064958458
 1206 0a24 ABAA2A3F 		.word	1059760811
 1207 0a28 E5E4E43E 		.word	1055188197
 1208 0a2c A3A2223F 		.word	1059234467
 1209 0a30 D1D0503F 		.word	1062260945
 1210 0a34 D9D8583F 		.word	1062787289
 1211 0a38 D5D4543F 		.word	1062524117
 1212 0a3c D0CF4F3F 		.word	1062195152
 1213 0a40 C6C5453F 		.word	1061537222
 1214 0a44 B1B0303F 		.word	1060155569
 1215 0a48 8A89093F 		.word	1057589642
ARM GAS  /tmp/cch37VC5.s 			page 27


 1216 0a4c 8D8C8C3E 		.word	1049398413
 1217 0a50 8180803B 		.word	998277249
 1218 0a54 00000000 		.word	0
 1219 0a58 00000000 		.word	0
 1220 0a5c 8988883E 		.word	1049135241
 1221 0a60 DDDC5C3F 		.word	1063050461
 1222 0a64 0000803F 		.word	1065353216
 1223 0a68 0000803F 		.word	1065353216
 1224 0a6c 0000803F 		.word	1065353216
 1225 0a70 0000803F 		.word	1065353216
 1226 0a74 0000803F 		.word	1065353216
 1227 0a78 0000803F 		.word	1065353216
 1228 0a7c 0000803F 		.word	1065353216
 1229 0a80 0000803F 		.word	1065353216
 1230 0a84 0000803F 		.word	1065353216
 1231 0a88 0000803F 		.word	1065353216
 1232 0a8c 0000803F 		.word	1065353216
 1233 0a90 E8E7673F 		.word	1063774184
 1234 0a94 C9C8483E 		.word	1044957385
 1235 0a98 00000000 		.word	0
 1236 0a9c C1C0403C 		.word	1010876609
 1237 0aa0 8584043E 		.word	1040483461
 1238 0aa4 A5A4243E 		.word	1042588837
 1239 0aa8 9594143E 		.word	1041536149
 1240 0aac F9F8F83D 		.word	1039726841
 1241 0ab0 B1B0B03D 		.word	1034989745
 1242 0ab4 C1C0C03C 		.word	1019265217
 1243 0ab8 00000000 		.word	0
 1244 0abc 00000000 		.word	0
 1245 0ac0 00000000 		.word	0
 1246 0ac4 C1C0C03C 		.word	1019265217
 1247 0ac8 CBCACA3E 		.word	1053477579
 1248 0acc E3E2623F 		.word	1063445219
 1249 0ad0 0000803F 		.word	1065353216
 1250 0ad4 0000803F 		.word	1065353216
 1251 0ad8 0000803F 		.word	1065353216
 1252 0adc 0000803F 		.word	1065353216
 1253 0ae0 0000803F 		.word	1065353216
 1254 0ae4 0000803F 		.word	1065353216
 1255 0ae8 0000803F 		.word	1065353216
 1256 0aec 0000803F 		.word	1065353216
 1257 0af0 0000803F 		.word	1065353216
 1258 0af4 0000803F 		.word	1065353216
 1259 0af8 0000803F 		.word	1065353216
 1260 0afc 0000803F 		.word	1065353216
 1261 0b00 F5F4743F 		.word	1064629493
 1262 0b04 E3E2E23E 		.word	1055056611
 1263 0b08 00000000 		.word	0
 1264 0b0c 00000000 		.word	0
 1265 0b10 00000000 		.word	0
 1266 0b14 00000000 		.word	0
 1267 0b18 00000000 		.word	0
 1268 0b1c 00000000 		.word	0
 1269 0b20 00000000 		.word	0
 1270 0b24 00000000 		.word	0
 1271 0b28 00000000 		.word	0
 1272 0b2c 9190903D 		.word	1032884369
ARM GAS  /tmp/cch37VC5.s 			page 28


 1273 0b30 9998983E 		.word	1050187929
 1274 0b34 A9A8283F 		.word	1059629225
 1275 0b38 FBFA7A3F 		.word	1065024251
 1276 0b3c 0000803F 		.word	1065353216
 1277 0b40 0000803F 		.word	1065353216
 1278 0b44 0000803F 		.word	1065353216
 1279 0b48 0000803F 		.word	1065353216
 1280 0b4c 0000803F 		.word	1065353216
 1281 0b50 0000803F 		.word	1065353216
 1282 0b54 0000803F 		.word	1065353216
 1283 0b58 0000803F 		.word	1065353216
 1284 0b5c 0000803F 		.word	1065353216
 1285 0b60 0000803F 		.word	1065353216
 1286 0b64 0000803F 		.word	1065353216
 1287 0b68 0000803F 		.word	1065353216
 1288 0b6c 0000803F 		.word	1065353216
 1289 0b70 0000803F 		.word	1065353216
 1290 0b74 F0EF6F3F 		.word	1064300528
 1291 0b78 A6A5253F 		.word	1059431846
 1292 0b7c CFCECE3E 		.word	1053740751
 1293 0b80 9998983E 		.word	1050187929
 1294 0b84 9392923E 		.word	1049793171
 1295 0b88 9F9E9E3E 		.word	1050582687
 1296 0b8c ABAAAA3E 		.word	1051372203
 1297 0b90 BBBABA3E 		.word	1052424891
 1298 0b94 E1E0E03E 		.word	1054925025
 1299 0b98 9392123F 		.word	1058181779
 1300 0b9c C1C0403F 		.word	1061208257
 1301 0ba0 F3F2723F 		.word	1064497907
 1302 0ba4 0000803F 		.word	1065353216
 1303 0ba8 0000803F 		.word	1065353216
 1304 0bac 0000803F 		.word	1065353216
 1305 0bb0 0000803F 		.word	1065353216
 1306 0bb4 0000803F 		.word	1065353216
 1307 0bb8 0000803F 		.word	1065353216
 1308 0bbc 0000803F 		.word	1065353216
 1309 0bc0 0000803F 		.word	1065353216
 1310 0bc4 0000803F 		.word	1065353216
 1311 0bc8 0000803F 		.word	1065353216
 1312 0bcc 0000803F 		.word	1065353216
 1313 0bd0 0000803F 		.word	1065353216
 1314 0bd4 0000803F 		.word	1065353216
 1315 0bd8 0000803F 		.word	1065353216
 1316 0bdc 0000803F 		.word	1065353216
 1317 0be0 0000803F 		.word	1065353216
 1318 0be4 0000803F 		.word	1065353216
 1319 0be8 0000803F 		.word	1065353216
 1320 0bec 0000803F 		.word	1065353216
 1321 0bf0 F4F3733F 		.word	1064563700
 1322 0bf4 F0EF6F3F 		.word	1064300528
 1323 0bf8 F3F2723F 		.word	1064497907
 1324 0bfc F7F6763F 		.word	1064761079
 1325 0c00 FAF9793F 		.word	1064958458
 1326 0c04 0000803F 		.word	1065353216
 1327 0c08 0000803F 		.word	1065353216
 1328 0c0c 0000803F 		.word	1065353216
 1329 0c10 0000803F 		.word	1065353216
ARM GAS  /tmp/cch37VC5.s 			page 29


 1330 0c14 0000803F 		.word	1065353216
 1331 0c18 0000803F 		.word	1065353216
 1332 0c1c 0000803F 		.word	1065353216
 1333 0c20 0000803F 		.word	1065353216
 1334 0c24 0000803F 		.word	1065353216
 1335 0c28 0000803F 		.word	1065353216
 1336 0c2c 0000803F 		.word	1065353216
 1337 0c30 0000803F 		.word	1065353216
 1338 0c34 0000803F 		.word	1065353216
 1339 0c38 0000803F 		.word	1065353216
 1340 0c3c 0000803F 		.word	1065353216
 1341              		.section	.rodata.MX_X_CUBE_AI_Init.str1.4,"aMS",%progbits,1
 1342              		.align	2
 1343              	.LC6:
 1344 0000 0D0A5445 		.ascii	"\015\012TEMPLATE - initialization\015\000"
 1344      4D504C41 
 1344      5445202D 
 1344      20696E69 
 1344      7469616C 
 1345              		.section	.rodata.MX_X_CUBE_AI_Process.str1.4,"aMS",%progbits,1
 1346              		.align	2
 1347              	.LC7:
 1348 0000 54454D50 		.ascii	"TEMPLATE - run - main loop\015\000"
 1348      4C415445 
 1348      202D2072 
 1348      756E202D 
 1348      206D6169 
 1349              	.LC8:
 1350 001c 74656D70 		.ascii	"template code should be updated\015\012 to support "
 1350      6C617465 
 1350      20636F64 
 1350      65207368 
 1350      6F756C64 
 1351 0049 61206D6F 		.ascii	"a model with multiple IO\000"
 1351      64656C20 
 1351      77697468 
 1351      206D756C 
 1351      7469706C 
 1352              		.section	.rodata.ai_boostrap.str1.4,"aMS",%progbits,1
 1353              		.align	2
 1354              	.LC2:
 1355 0000 61695F6E 		.ascii	"ai_network_create\000"
 1355      6574776F 
 1355      726B5F63 
 1355      72656174 
 1355      6500
 1356 0012 0000     		.space	2
 1357              	.LC3:
 1358 0014 61695F6E 		.ascii	"ai_network_init\000"
 1358      6574776F 
 1358      726B5F69 
 1358      6E697400 
 1359              	.LC4:
 1360 0024 61695F6E 		.ascii	"ai_network_get_error\000"
 1360      6574776F 
 1360      726B5F67 
 1360      65745F65 
ARM GAS  /tmp/cch37VC5.s 			page 30


 1360      72726F72 
 1361              		.section	.rodata.ai_log_err.str1.4,"aMS",%progbits,1
 1362              		.align	2
 1363              	.LC0:
 1364 0000 54454D50 		.ascii	"TEMPLATE - Error (%s) - type=0x%02x code=0x%02x\015"
 1364      4C415445 
 1364      202D2045 
 1364      72726F72 
 1364      20282573 
 1365 0030 0A00     		.ascii	"\012\000"
 1366 0032 0000     		.space	2
 1367              	.LC1:
 1368 0034 54454D50 		.ascii	"TEMPLATE - Error - type=0x%02x code=0x%02x\015\012\000"
 1368      4C415445 
 1368      202D2045 
 1368      72726F72 
 1368      202D2074 
 1369              		.section	.rodata.ai_run.str1.4,"aMS",%progbits,1
 1370              		.align	2
 1371              	.LC5:
 1372 0000 61695F6E 		.ascii	"ai_network_run\000"
 1372      6574776F 
 1372      726B5F72 
 1372      756E00
 1373              		.text
 1374              	.Letext0:
 1375              		.file 2 "/usr/include/newlib/machine/_default_types.h"
 1376              		.file 3 "/usr/include/newlib/sys/_stdint.h"
 1377              		.file 4 "/usr/include/newlib/sys/lock.h"
 1378              		.file 5 "/usr/include/newlib/sys/_types.h"
 1379              		.file 6 "/usr/lib/gcc/arm-none-eabi/6.3.1/include/stddef.h"
 1380              		.file 7 "/usr/include/newlib/sys/reent.h"
 1381              		.file 8 "/usr/include/newlib/stdlib.h"
 1382              		.file 9 "Middlewares/ST/AI/Inc/ai_platform.h"
 1383              		.file 10 "Drivers/CMSIS/Include/core_cm4.h"
 1384              		.file 11 "Drivers/CMSIS/Device/ST/STM32G4xx/Include/system_stm32g4xx.h"
 1385              		.file 12 "Drivers/STM32G4xx_HAL_Driver/Inc/stm32g4xx_hal_def.h"
 1386              		.file 13 "Drivers/STM32G4xx_HAL_Driver/Inc/stm32g4xx_hal_flash.h"
 1387              		.file 14 "Drivers/STM32G4xx_HAL_Driver/Inc/stm32g4xx_hal.h"
 1388              		.file 15 "Core/Inc/testInput.h"
 1389              		.file 16 "X-CUBE-AI/App/network_data.h"
 1390              		.file 17 "X-CUBE-AI/App/network.h"
 1391              		.file 18 "/usr/include/newlib/stdio.h"
 1392              		.file 19 "<built-in>"
ARM GAS  /tmp/cch37VC5.s 			page 31

